target datalayout = "e-m:e-p270:32:32-p271:32:32-p272:64:64-i64:64-i128:128-f80:128-n8:16:32:64-S128"
target triple = "x86_64-pc-linux-gnu"

%class.G1NUMA = type { ptr, i32, ptr, i32, i64, i64, ptr }

; Function Attrs: mustprogress nounwind uwtable
define hidden void @_ZN6G1NUMAC2Ev(ptr noundef nonnull align 8 dereferenceable(56) %0) unnamed_addr #1 align 2 {
  %2 = alloca ptr, align 8
  store ptr %0, ptr %2, align 8
  %3 = load ptr, ptr %2, align 8
  %4 = getelementptr inbounds %class.G1NUMA, ptr %3, i32 0, i32 0
  store ptr null, ptr %4, align 8
  %5 = getelementptr inbounds %class.G1NUMA, ptr %3, i32 0, i32 1
  store i32 0, ptr %5, align 8
  %6 = getelementptr inbounds %class.G1NUMA, ptr %3, i32 0, i32 2
  store ptr null, ptr %6, align 8
  %7 = getelementptr inbounds %class.G1NUMA, ptr %3, i32 0, i32 3
  store i32 0, ptr %7, align 8
  %8 = getelementptr inbounds %class.G1NUMA, ptr %3, i32 0, i32 4
  store i64 0, ptr %8, align 8
  %9 = getelementptr inbounds %class.G1NUMA, ptr %3, i32 0, i32 5
  store i64 0, ptr %9, align 8
  %10 = getelementptr inbounds %class.G1NUMA, ptr %3, i32 0, i32 6
  store ptr null, ptr %10, align 8
  ret void
}