; Function Attrs: mustprogress nofree norecurse nosync nounwind willreturn memory(argmem: write) uwtable
define hidden void @_ZN6G1NUMAC2Ev(ptr nocapture noundef nonnull writeonly align 8 dereferenceable(56) %0) unnamed_addr #3 align 2 {
  store ptr null, ptr %0, align 8
  %2 = getelementptr inbounds i8, ptr %0, i64 8
  store i32 0, ptr %2, align 8
  %3 = getelementptr inbounds i8, ptr %0, i64 16
  store ptr null, ptr %3, align 8
  %4 = getelementptr inbounds i8, ptr %0, i64 24
  store i32 0, ptr %4, align 8
  %5 = getelementptr inbounds i8, ptr %0, i64 32
  tail call void @llvm.memset.p0.i64(ptr noundef nonnull align 8 dereferenceable(24) %5, i8 0, i64 24, i1 false)
  ret void
}